target datalayout = "e-m:e-p270:32:32-p271:32:32-p272:64:64-i64:64-i128:128-f80:128-n8:16:32:64-S128"
target triple = "x86_64-pc-linux-gnu"

%"class.std::__shared_count" = type { ptr }
%"class.std::mutex" = type { %"class.std::__mutex_base" }
%"class.std::__mutex_base" = type { %union.pthread_mutex_t }
%union.pthread_mutex_t = type { %struct.__pthread_mutex_s }
%struct.__pthread_mutex_s = type { i32, i32, i32, i32, i32, i16, i16, %struct.__pthread_internal_list }
%struct.__pthread_internal_list = type { ptr, ptr }
%"class.cm::uv_async_ptr" = type { %"class.cm::uv_handle_ptr_.32" }
%"class.cm::uv_handle_ptr_.32" = type { %"class.cm::uv_handle_ptr_base_.33" }
%"class.cm::uv_handle_ptr_base_.33" = type { %"class.std::shared_ptr.34" }
%"class.std::shared_ptr.34" = type { %"class.std::__shared_ptr.35" }
%"class.std::__shared_ptr.35" = type { ptr, %"class.std::__shared_count" }
%"class.std::condition_variable" = type { %"class.std::__condvar" }
%"class.std::__condvar" = type { %union.pthread_cond_t }
%union.pthread_cond_t = type { %struct.__pthread_cond_s }
%struct.__pthread_cond_s = type { %union.__atomic_wide_counter, %union.__atomic_wide_counter, [2 x i32], [2 x i32], i32, i32, [2 x i32] }
%union.__atomic_wide_counter = type { i64 }
%"class.std::unique_ptr.41" = type { %"struct.std::__uniq_ptr_data.42" }
%"struct.std::__uniq_ptr_data.42" = type { %"class.std::__uniq_ptr_impl.43" }
%"class.std::__uniq_ptr_impl.43" = type { %"class.std::tuple.44" }
%"class.std::tuple.44" = type { %"struct.std::_Tuple_impl.45" }
%"struct.std::_Tuple_impl.45" = type { %"struct.std::_Head_base.48" }
%"struct.std::_Head_base.48" = type { ptr }
%class.cmWorkerPoolInternal = type { %"class.std::unique_ptr.41", %"class.cm::uv_async_ptr", %"class.cm::uv_async_ptr", %"class.std::mutex", i8, i8, i8, i32, i32, i32, %"class.std::deque", %"class.std::condition_variable", %"class.std::condition_variable", %"class.std::vector.52", ptr }
%"class.std::deque" = type { %"class.std::_Deque_base" }
%"class.std::_Deque_base" = type { %"struct.std::_Deque_base<std::unique_ptr<cmWorkerPool::JobT>, std::allocator<std::unique_ptr<cmWorkerPool::JobT>>>::_Deque_impl" }
%"struct.std::_Deque_base<std::unique_ptr<cmWorkerPool::JobT>, std::allocator<std::unique_ptr<cmWorkerPool::JobT>>>::_Deque_impl" = type { %"struct.std::_Deque_base<std::unique_ptr<cmWorkerPool::JobT>, std::allocator<std::unique_ptr<cmWorkerPool::JobT>>>::_Deque_impl_data" }
%"struct.std::_Deque_base<std::unique_ptr<cmWorkerPool::JobT>, std::allocator<std::unique_ptr<cmWorkerPool::JobT>>>::_Deque_impl_data" = type { ptr, i64, %"struct.std::_Deque_iterator", %"struct.std::_Deque_iterator" }
%"struct.std::_Deque_iterator" = type { ptr, ptr, ptr, ptr }
%"class.std::vector.52" = type { %"struct.std::_Vector_base.53" }
%"struct.std::_Vector_base.53" = type { %"struct.std::_Vector_base<std::unique_ptr<cmWorkerPoolWorker>, std::allocator<std::unique_ptr<cmWorkerPoolWorker>>>::_Vector_impl" }
%"struct.std::_Vector_base<std::unique_ptr<cmWorkerPoolWorker>, std::allocator<std::unique_ptr<cmWorkerPoolWorker>>>::_Vector_impl" = type { %"struct.std::_Vector_base<std::unique_ptr<cmWorkerPoolWorker>, std::allocator<std::unique_ptr<cmWorkerPoolWorker>>>::_Vector_impl_data" }
%"struct.std::_Vector_base<std::unique_ptr<cmWorkerPoolWorker>, std::allocator<std::unique_ptr<cmWorkerPoolWorker>>>::_Vector_impl_data" = type { ptr, ptr, ptr }
%"class.std::unique_ptr.65" = type { %"struct.std::__uniq_ptr_data.66" }
%"struct.std::__uniq_ptr_data.66" = type { %"class.std::__uniq_ptr_impl.67" }
%"class.std::__uniq_ptr_impl.67" = type { %"class.std::tuple.68" }
%"class.std::tuple.68" = type { %"struct.std::_Tuple_impl.69" }
%"struct.std::_Tuple_impl.69" = type { %"struct.std::_Head_base.72" }
%"struct.std::_Head_base.72" = type { ptr }
%class.cmWorkerPool = type { ptr, i32, %"class.std::unique_ptr.57" }
%"class.std::unique_ptr.57" = type { %"struct.std::__uniq_ptr_data.58" }
%"struct.std::__uniq_ptr_data.58" = type { %"class.std::__uniq_ptr_impl.59" }
%"class.std::__uniq_ptr_impl.59" = type { %"class.std::tuple.60" }
%"class.std::tuple.60" = type { %"struct.std::_Tuple_impl.61" }
%"struct.std::_Tuple_impl.61" = type { %"struct.std::_Head_base.64" }
%"struct.std::_Head_base.64" = type { ptr }
%"class.cmWorkerPool::JobT" = type <{ ptr, ptr, i32, i8, [3 x i8] }>

@.str.16 = private unnamed_addr constant [74 x i8] c"vector::_M_range_check: __n (which is %zu) >= this->size() (which is %zu)\00", align 1

; Function Attrs: mustprogress nounwind uwtable
define linkonce_odr dso_local noundef nonnull align 8 dereferenceable(8) ptr @_ZNSt10_Head_baseILm0EP20cmWorkerPoolInternalLb0EE7_M_headERKS2_(ptr noundef nonnull align 8 dereferenceable(8) %0) #2 comdat align 2 {
  %2 = alloca ptr, align 8
  store ptr %0, ptr %2, align 8
  %3 = load ptr, ptr %2, align 8
  %4 = getelementptr inbounds %"struct.std::_Head_base.64", ptr %3, i32 0, i32 0
  ret ptr %4
}

; Function Attrs: mustprogress nounwind uwtable
define linkonce_odr dso_local noundef nonnull align 8 dereferenceable(8) ptr @_ZNSt10_Head_baseILm0EP18cmWorkerPoolWorkerLb0EE7_M_headERKS2_(ptr noundef nonnull align 8 dereferenceable(8) %0) #2 comdat align 2 {
  %2 = alloca ptr, align 8
  store ptr %0, ptr %2, align 8
  %3 = load ptr, ptr %2, align 8
  %4 = getelementptr inbounds %"struct.std::_Head_base.72", ptr %3, i32 0, i32 0
  ret ptr %4
}

; Function Attrs: mustprogress nounwind uwtable
define linkonce_odr dso_local noundef nonnull align 8 dereferenceable(8) ptr @_ZNSt11_Tuple_implILm0EJP20cmWorkerPoolInternalSt14default_deleteIS0_EEE7_M_headERKS4_(ptr noundef nonnull align 8 dereferenceable(8) %0) #2 comdat align 2 {
  %2 = alloca ptr, align 8
  store ptr %0, ptr %2, align 8
  %3 = load ptr, ptr %2, align 8
  %4 = call noundef nonnull align 8 dereferenceable(8) ptr @_ZNSt10_Head_baseILm0EP20cmWorkerPoolInternalLb0EE7_M_headERKS2_(ptr noundef nonnull align 8 dereferenceable(8) %3) #12
  ret ptr %4
}

; Function Attrs: mustprogress nounwind uwtable
define linkonce_odr dso_local noundef nonnull align 8 dereferenceable(8) ptr @_ZNSt11_Tuple_implILm0EJP18cmWorkerPoolWorkerSt14default_deleteIS0_EEE7_M_headERKS4_(ptr noundef nonnull align 8 dereferenceable(8) %0) #2 comdat align 2 {
  %2 = alloca ptr, align 8
  store ptr %0, ptr %2, align 8
  %3 = load ptr, ptr %2, align 8
  %4 = call noundef nonnull align 8 dereferenceable(8) ptr @_ZNSt10_Head_baseILm0EP18cmWorkerPoolWorkerLb0EE7_M_headERKS2_(ptr noundef nonnull align 8 dereferenceable(8) %3) #12
  ret ptr %4
}

; Function Attrs: mustprogress nounwind uwtable
define linkonce_odr dso_local noundef nonnull align 8 dereferenceable(8) ptr @_ZSt12__get_helperILm0EP20cmWorkerPoolInternalJSt14default_deleteIS0_EEERKT0_RKSt11_Tuple_implIXT_EJS4_DpT1_EE(ptr noundef nonnull align 8 dereferenceable(8) %0) #2 comdat {
  %2 = alloca ptr, align 8
  store ptr %0, ptr %2, align 8
  %3 = load ptr, ptr %2, align 8
  %4 = call noundef nonnull align 8 dereferenceable(8) ptr @_ZNSt11_Tuple_implILm0EJP20cmWorkerPoolInternalSt14default_deleteIS0_EEE7_M_headERKS4_(ptr noundef nonnull align 8 dereferenceable(8) %3) #12
  ret ptr %4
}

; Function Attrs: mustprogress nounwind uwtable
define linkonce_odr dso_local noundef nonnull align 8 dereferenceable(8) ptr @_ZSt12__get_helperILm0EP18cmWorkerPoolWorkerJSt14default_deleteIS0_EEERKT0_RKSt11_Tuple_implIXT_EJS4_DpT1_EE(ptr noundef nonnull align 8 dereferenceable(8) %0) #2 comdat {
  %2 = alloca ptr, align 8
  store ptr %0, ptr %2, align 8
  %3 = load ptr, ptr %2, align 8
  %4 = call noundef nonnull align 8 dereferenceable(8) ptr @_ZNSt11_Tuple_implILm0EJP18cmWorkerPoolWorkerSt14default_deleteIS0_EEE7_M_headERKS4_(ptr noundef nonnull align 8 dereferenceable(8) %3) #12
  ret ptr %4
}

; Function Attrs: mustprogress nounwind uwtable
define linkonce_odr dso_local noundef nonnull align 8 dereferenceable(8) ptr @_ZSt3getILm0EJP20cmWorkerPoolInternalSt14default_deleteIS0_EEERKNSt13tuple_elementIXT_ESt5tupleIJDpT0_EEE4typeERKS8_(ptr noundef nonnull align 8 dereferenceable(8) %0) #2 comdat {
  %2 = alloca ptr, align 8
  store ptr %0, ptr %2, align 8
  %3 = load ptr, ptr %2, align 8
  %4 = call noundef nonnull align 8 dereferenceable(8) ptr @_ZSt12__get_helperILm0EP20cmWorkerPoolInternalJSt14default_deleteIS0_EEERKT0_RKSt11_Tuple_implIXT_EJS4_DpT1_EE(ptr noundef nonnull align 8 dereferenceable(8) %3) #12
  ret ptr %4
}

; Function Attrs: mustprogress nounwind uwtable
define linkonce_odr dso_local noundef nonnull align 8 dereferenceable(8) ptr @_ZSt3getILm0EJP18cmWorkerPoolWorkerSt14default_deleteIS0_EEERKNSt13tuple_elementIXT_ESt5tupleIJDpT0_EEE4typeERKS8_(ptr noundef nonnull align 8 dereferenceable(8) %0) #2 comdat {
  %2 = alloca ptr, align 8
  store ptr %0, ptr %2, align 8
  %3 = load ptr, ptr %2, align 8
  %4 = call noundef nonnull align 8 dereferenceable(8) ptr @_ZSt12__get_helperILm0EP18cmWorkerPoolWorkerJSt14default_deleteIS0_EEERKT0_RKSt11_Tuple_implIXT_EJS4_DpT1_EE(ptr noundef nonnull align 8 dereferenceable(8) %3) #12
  ret ptr %4
}

; Function Attrs: mustprogress nounwind uwtable
define linkonce_odr dso_local noundef i64 @_ZNKSt6vectorISt10unique_ptrI18cmWorkerPoolWorkerSt14default_deleteIS1_EESaIS4_EE4sizeEv(ptr noundef nonnull align 8 dereferenceable(24) %0) #2 comdat align 2 {
  %2 = alloca ptr, align 8
  store ptr %0, ptr %2, align 8
  %3 = load ptr, ptr %2, align 8
  %4 = getelementptr inbounds %"struct.std::_Vector_base.53", ptr %3, i32 0, i32 0
  %5 = getelementptr inbounds %"struct.std::_Vector_base<std::unique_ptr<cmWorkerPoolWorker>, std::allocator<std::unique_ptr<cmWorkerPoolWorker>>>::_Vector_impl_data", ptr %4, i32 0, i32 1
  %6 = load ptr, ptr %5, align 8
  %7 = getelementptr inbounds %"struct.std::_Vector_base.53", ptr %3, i32 0, i32 0
  %8 = getelementptr inbounds %"struct.std::_Vector_base<std::unique_ptr<cmWorkerPoolWorker>, std::allocator<std::unique_ptr<cmWorkerPoolWorker>>>::_Vector_impl_data", ptr %7, i32 0, i32 0
  %9 = load ptr, ptr %8, align 8
  %10 = ptrtoint ptr %6 to i64
  %11 = ptrtoint ptr %9 to i64
  %12 = sub i64 %10, %11
  %13 = sdiv exact i64 %12, 8
  ret i64 %13
}

; Function Attrs: mustprogress nounwind uwtable
define linkonce_odr dso_local noundef ptr @_ZNKSt15__uniq_ptr_implI20cmWorkerPoolInternalSt14default_deleteIS0_EE6_M_ptrEv(ptr noundef nonnull align 8 dereferenceable(8) %0) #2 comdat align 2 {
  %2 = alloca ptr, align 8
  store ptr %0, ptr %2, align 8
  %3 = load ptr, ptr %2, align 8
  %4 = getelementptr inbounds %"class.std::__uniq_ptr_impl.59", ptr %3, i32 0, i32 0
  %5 = call noundef nonnull align 8 dereferenceable(8) ptr @_ZSt3getILm0EJP20cmWorkerPoolInternalSt14default_deleteIS0_EEERKNSt13tuple_elementIXT_ESt5tupleIJDpT0_EEE4typeERKS8_(ptr noundef nonnull align 8 dereferenceable(8) %4) #12
  %6 = load ptr, ptr %5, align 8
  ret ptr %6
}

; Function Attrs: mustprogress nounwind uwtable
define linkonce_odr dso_local noundef ptr @_ZNKSt15__uniq_ptr_implI18cmWorkerPoolWorkerSt14default_deleteIS0_EE6_M_ptrEv(ptr noundef nonnull align 8 dereferenceable(8) %0) #2 comdat align 2 {
  %2 = alloca ptr, align 8
  store ptr %0, ptr %2, align 8
  %3 = load ptr, ptr %2, align 8
  %4 = getelementptr inbounds %"class.std::__uniq_ptr_impl.67", ptr %3, i32 0, i32 0
  %5 = call noundef nonnull align 8 dereferenceable(8) ptr @_ZSt3getILm0EJP18cmWorkerPoolWorkerSt14default_deleteIS0_EEERKNSt13tuple_elementIXT_ESt5tupleIJDpT0_EEE4typeERKS8_(ptr noundef nonnull align 8 dereferenceable(8) %4) #12
  %6 = load ptr, ptr %5, align 8
  ret ptr %6
}

; Function Attrs: mustprogress nounwind uwtable
define linkonce_odr dso_local noundef nonnull align 8 dereferenceable(8) ptr @_ZNSt6vectorISt10unique_ptrI18cmWorkerPoolWorkerSt14default_deleteIS1_EESaIS4_EEixEm(ptr noundef nonnull align 8 dereferenceable(24) %0, i64 noundef %1) #2 comdat align 2 {
  %3 = alloca ptr, align 8
  %4 = alloca i64, align 8
  store ptr %0, ptr %3, align 8
  store i64 %1, ptr %4, align 8
  %5 = load ptr, ptr %3, align 8
  %6 = getelementptr inbounds %"struct.std::_Vector_base.53", ptr %5, i32 0, i32 0
  %7 = getelementptr inbounds %"struct.std::_Vector_base<std::unique_ptr<cmWorkerPoolWorker>, std::allocator<std::unique_ptr<cmWorkerPoolWorker>>>::_Vector_impl_data", ptr %6, i32 0, i32 0
  %8 = load ptr, ptr %7, align 8
  %9 = load i64, ptr %4, align 8
  %10 = getelementptr inbounds %"class.std::unique_ptr.65", ptr %8, i64 %9
  ret ptr %10
}

; Function Attrs: mustprogress uwtable
define linkonce_odr dso_local void @_ZNKSt6vectorISt10unique_ptrI18cmWorkerPoolWorkerSt14default_deleteIS1_EESaIS4_EE14_M_range_checkEm(ptr noundef nonnull align 8 dereferenceable(24) %0, i64 noundef %1) #0 comdat align 2 {
  %3 = alloca ptr, align 8
  %4 = alloca i64, align 8
  store ptr %0, ptr %3, align 8
  store i64 %1, ptr %4, align 8
  %5 = load ptr, ptr %3, align 8
  %6 = load i64, ptr %4, align 8
  %7 = call noundef i64 @_ZNKSt6vectorISt10unique_ptrI18cmWorkerPoolWorkerSt14default_deleteIS1_EESaIS4_EE4sizeEv(ptr noundef nonnull align 8 dereferenceable(24) %5) #12
  %8 = icmp uge i64 %6, %7
  br i1 %8, label %9, label %12

9:                                                ; preds = %2
  %10 = load i64, ptr %4, align 8
  %11 = call noundef i64 @_ZNKSt6vectorISt10unique_ptrI18cmWorkerPoolWorkerSt14default_deleteIS1_EESaIS4_EE4sizeEv(ptr noundef nonnull align 8 dereferenceable(24) %5) #12
  call void (ptr, ...) @_ZSt24__throw_out_of_range_fmtPKcz(ptr noundef @.str.16, i64 noundef %10, i64 noundef %11) #14
  unreachable

12:                                               ; preds = %2
  ret void
}

; Function Attrs: mustprogress nounwind uwtable
define linkonce_odr dso_local noundef ptr @_ZNKSt10unique_ptrI20cmWorkerPoolInternalSt14default_deleteIS0_EE3getEv(ptr noundef nonnull align 8 dereferenceable(8) %0) #2 comdat align 2 {
  %2 = alloca ptr, align 8
  store ptr %0, ptr %2, align 8
  %3 = load ptr, ptr %2, align 8
  %4 = getelementptr inbounds %"class.std::unique_ptr.57", ptr %3, i32 0, i32 0
  %5 = call noundef ptr @_ZNKSt15__uniq_ptr_implI20cmWorkerPoolInternalSt14default_deleteIS0_EE6_M_ptrEv(ptr noundef nonnull align 8 dereferenceable(8) %4) #12
  ret ptr %5
}

; Function Attrs: mustprogress nounwind uwtable
define linkonce_odr dso_local noundef ptr @_ZNKSt10unique_ptrI18cmWorkerPoolWorkerSt14default_deleteIS0_EE3getEv(ptr noundef nonnull align 8 dereferenceable(8) %0) #2 comdat align 2 {
  %2 = alloca ptr, align 8
  store ptr %0, ptr %2, align 8
  %3 = load ptr, ptr %2, align 8
  %4 = getelementptr inbounds %"class.std::unique_ptr.65", ptr %3, i32 0, i32 0
  %5 = call noundef ptr @_ZNKSt15__uniq_ptr_implI18cmWorkerPoolWorkerSt14default_deleteIS0_EE6_M_ptrEv(ptr noundef nonnull align 8 dereferenceable(8) %4) #12
  ret ptr %5
}

; Function Attrs: mustprogress uwtable
define linkonce_odr dso_local noundef nonnull align 8 dereferenceable(8) ptr @_ZNSt6vectorISt10unique_ptrI18cmWorkerPoolWorkerSt14default_deleteIS1_EESaIS4_EE2atEm(ptr noundef nonnull align 8 dereferenceable(24) %0, i64 noundef %1) #0 comdat align 2 {
  %3 = alloca ptr, align 8
  %4 = alloca i64, align 8
  store ptr %0, ptr %3, align 8
  store i64 %1, ptr %4, align 8
  %5 = load ptr, ptr %3, align 8
  %6 = load i64, ptr %4, align 8
  call void @_ZNKSt6vectorISt10unique_ptrI18cmWorkerPoolWorkerSt14default_deleteIS1_EESaIS4_EE14_M_range_checkEm(ptr noundef nonnull align 8 dereferenceable(24) %5, i64 noundef %6)
  %7 = load i64, ptr %4, align 8
  %8 = call noundef nonnull align 8 dereferenceable(8) ptr @_ZNSt6vectorISt10unique_ptrI18cmWorkerPoolWorkerSt14default_deleteIS1_EESaIS4_EEixEm(ptr noundef nonnull align 8 dereferenceable(24) %5, i64 noundef %7) #12
  ret ptr %8
}

; Function Attrs: mustprogress nounwind uwtable
define linkonce_odr dso_local noundef ptr @_ZNKSt10unique_ptrI20cmWorkerPoolInternalSt14default_deleteIS0_EEptEv(ptr noundef nonnull align 8 dereferenceable(8) %0) #2 comdat align 2 {
  %2 = alloca ptr, align 8
  store ptr %0, ptr %2, align 8
  %3 = load ptr, ptr %2, align 8
  %4 = call noundef ptr @_ZNKSt10unique_ptrI20cmWorkerPoolInternalSt14default_deleteIS0_EE3getEv(ptr noundef nonnull align 8 dereferenceable(8) %3) #12
  ret ptr %4
}

; Function Attrs: mustprogress uwtable
define dso_local noundef zeroext i1 @_ZN12cmWorkerPool4JobT10RunProcessERNS_14ProcessResultTERKSt6vectorINSt7__cxx1112basic_stringIcSt11char_traitsIcESaIcEEESaIS9_EERKS9_(ptr noundef nonnull align 8 dereferenceable(21) %0, ptr noundef nonnull align 8 dereferenceable(112) %1, ptr noundef nonnull align 8 dereferenceable(24) %2, ptr noundef nonnull align 8 dereferenceable(32) %3) #0 align 2 {
  %5 = alloca ptr, align 8
  %6 = alloca ptr, align 8
  %7 = alloca ptr, align 8
  %8 = alloca ptr, align 8
  %9 = alloca ptr, align 8
  store ptr %0, ptr %5, align 8
  store ptr %1, ptr %6, align 8
  store ptr %2, ptr %7, align 8
  store ptr %3, ptr %8, align 8
  %10 = load ptr, ptr %5, align 8
  %11 = getelementptr inbounds %"class.cmWorkerPool::JobT", ptr %10, i32 0, i32 1
  %12 = load ptr, ptr %11, align 8
  %13 = getelementptr inbounds %class.cmWorkerPool, ptr %12, i32 0, i32 2
  %14 = call noundef ptr @_ZNKSt10unique_ptrI20cmWorkerPoolInternalSt14default_deleteIS0_EEptEv(ptr noundef nonnull align 8 dereferenceable(8) %13) #12
  %15 = getelementptr inbounds %class.cmWorkerPoolInternal, ptr %14, i32 0, i32 13
  %16 = getelementptr inbounds %"class.cmWorkerPool::JobT", ptr %10, i32 0, i32 2
  %17 = load i32, ptr %16, align 8
  %18 = zext i32 %17 to i64
  %19 = call noundef nonnull align 8 dereferenceable(8) ptr @_ZNSt6vectorISt10unique_ptrI18cmWorkerPoolWorkerSt14default_deleteIS1_EESaIS4_EE2atEm(ptr noundef nonnull align 8 dereferenceable(24) %15, i64 noundef %18)
  %20 = call noundef ptr @_ZNKSt10unique_ptrI18cmWorkerPoolWorkerSt14default_deleteIS0_EE3getEv(ptr noundef nonnull align 8 dereferenceable(8) %19) #12
  store ptr %20, ptr %9, align 8
  %21 = load ptr, ptr %9, align 8
  %22 = load ptr, ptr %6, align 8
  %23 = load ptr, ptr %7, align 8
  %24 = load ptr, ptr %8, align 8
  %25 = call noundef zeroext i1 @_ZN18cmWorkerPoolWorker10RunProcessERN12cmWorkerPool14ProcessResultTERKSt6vectorINSt7__cxx1112basic_stringIcSt11char_traitsIcESaIcEEESaIS9_EERKS9_(ptr noundef nonnull align 8 dereferenceable(120) %21, ptr noundef nonnull align 8 dereferenceable(112) %22, ptr noundef nonnull align 8 dereferenceable(24) %23, ptr noundef nonnull align 8 dereferenceable(32) %24)
  ret i1 %25
}