; Function Attrs: mustprogress uwtable
define dso_local noundef zeroext i1 @_ZN12cmWorkerPool4JobT10RunProcessERNS_14ProcessResultTERKSt6vectorINSt7__cxx1112basic_stringIcSt11char_traitsIcESaIcEEESaIS9_EERKS9_(ptr nocapture noundef nonnull readonly align 8 dereferenceable(21) %0, ptr noundef nonnull align 8 dereferenceable(112) %1, ptr noundef nonnull align 8 dereferenceable(24) %2, ptr noundef nonnull align 8 dereferenceable(32) %3) local_unnamed_addr #0 align 2 {
  %5 = getelementptr inbounds i8, ptr %0, i64 8
  %6 = load ptr, ptr %5, align 8
  %7 = getelementptr inbounds i8, ptr %6, i64 16
  %8 = load ptr, ptr %7, align 8
  %9 = getelementptr inbounds i8, ptr %8, i64 272
  %10 = getelementptr inbounds i8, ptr %0, i64 16
  %11 = load i32, ptr %10, align 8
  %12 = zext i32 %11 to i64
  %13 = getelementptr inbounds i8, ptr %8, i64 280
  %14 = load ptr, ptr %13, align 8
  %15 = load ptr, ptr %9, align 8
  %16 = ptrtoint ptr %14 to i64
  %17 = ptrtoint ptr %15 to i64
  %18 = sub i64 %16, %17
  %19 = ashr exact i64 %18, 3
  %.not.i.i = icmp ugt i64 %19, %12
  br i1 %.not.i.i, label %_ZNSt6vectorISt10unique_ptrI18cmWorkerPoolWorkerSt14default_deleteIS1_EESaIS4_EE2atEm.exit, label %20

20:                                               ; preds = %4
  tail call void (ptr, ...) @_ZSt24__throw_out_of_range_fmtPKcz(ptr noundef nonnull @.str.16, i64 noundef %12, i64 noundef %19) #21
  unreachable

_ZNSt6vectorISt10unique_ptrI18cmWorkerPoolWorkerSt14default_deleteIS1_EESaIS4_EE2atEm.exit: ; preds = %4
  %21 = getelementptr inbounds %"class.std::unique_ptr.65", ptr %15, i64 %12
  %22 = load ptr, ptr %21, align 8
  %23 = tail call noundef zeroext i1 @_ZN18cmWorkerPoolWorker10RunProcessERN12cmWorkerPool14ProcessResultTERKSt6vectorINSt7__cxx1112basic_stringIcSt11char_traitsIcESaIcEEESaIS9_EERKS9_(ptr noundef nonnull align 8 dereferenceable(120) %22, ptr noundef nonnull align 8 dereferenceable(112) %1, ptr noundef nonnull align 8 dereferenceable(24) %2, ptr noundef nonnull align 8 dereferenceable(32) %3)
  ret i1 %23
}